target datalayout = "e-m:e-p270:32:32-p271:32:32-p272:64:64-i64:64-i128:128-f80:128-n8:16:32:64-S128"
target triple = "x86_64-pc-linux-gnu"

; Function Attrs: nounwind uwtable
define internal i32 @np_bool(ptr noundef %0, ptr noundef %1, ptr noundef %2, ptr noundef %3) #0 {
  %5 = alloca i32, align 4
  %6 = alloca ptr, align 8
  %7 = alloca ptr, align 8
  %8 = alloca ptr, align 8
  %9 = alloca ptr, align 8
  %10 = alloca i32, align 4
  %11 = alloca i8, align 1
  %12 = alloca i32, align 4
  store ptr %0, ptr %6, align 8, !tbaa !8
  store ptr %1, ptr %7, align 8, !tbaa !43
  store ptr %2, ptr %8, align 8, !tbaa !3
  store ptr %3, ptr %9, align 8, !tbaa !49
  call void @llvm.lifetime.start.p0(i64 4, ptr %10) #8
  call void @llvm.lifetime.start.p0(i64 1, ptr %11) #8
  %13 = load ptr, ptr %8, align 8, !tbaa !3
  %14 = call i32 @PyObject_IsTrue(ptr noundef %13)
  store i32 %14, ptr %10, align 4, !tbaa !11
  %15 = load i32, ptr %10, align 4, !tbaa !11
  %16 = icmp slt i32 %15, 0
  br i1 %16, label %17, label %18

17:                                               ; preds = %4
  store i32 -1, ptr %5, align 4
  store i32 1, ptr %12, align 4
  br label %23

18:                                               ; preds = %4
  %19 = load i32, ptr %10, align 4, !tbaa !11
  %20 = icmp ne i32 %19, 0
  %21 = zext i1 %20 to i8
  store i8 %21, ptr %11, align 1, !tbaa !108
  %22 = load ptr, ptr %7, align 8, !tbaa !43
  call void @llvm.memcpy.p0.p0.i64(ptr align 1 %22, ptr align 1 %11, i64 1, i1 false)
  store i32 0, ptr %5, align 4
  store i32 1, ptr %12, align 4
  br label %23

23:                                               ; preds = %18, %17
  call void @llvm.lifetime.end.p0(i64 1, ptr %11) #8
  call void @llvm.lifetime.end.p0(i64 4, ptr %10) #8
  %24 = load i32, ptr %5, align 4
  ret i32 %24
}