; Function Attrs: nounwind uwtable
define internal range(i32 -1, 1) i32 @np_bool(ptr readnone captures(none) %0, ptr noundef writeonly captures(none) %1, ptr noundef %2, ptr readnone captures(none) %3) #0 {
  %5 = tail call i32 @PyObject_IsTrue(ptr noundef %2) #7
  %6 = icmp slt i32 %5, 0
  br i1 %6, label %10, label %7

7:                                                ; preds = %4
  %8 = icmp ne i32 %5, 0
  %9 = zext i1 %8 to i8
  store i8 %9, ptr %1, align 1
  br label %10

10:                                               ; preds = %4, %7
  %.0 = phi i32 [ 0, %7 ], [ -1, %4 ]
  ret i32 %.0
}